; Function Attrs: mustprogress nofree norecurse nosync nounwind willreturn memory(argmem: write) uwtable
define void @_ZN5arrow8TimeTypeC2ENS_4Type4typeENS_8TimeUnit4typeE(ptr noundef nonnull writeonly align 8 captures(none) dereferenceable(76) initializes((0, 44), (48, 76)) %0, i32 noundef %1, i32 noundef %2) unnamed_addr #7 align 2 {
  %4 = getelementptr inbounds nuw i8, ptr %0, i64 8
  tail call void @llvm.memset.p0.i64(ptr noundef nonnull align 8 dereferenceable(32) %4, i8 0, i64 32, i1 false)
  %5 = getelementptr inbounds nuw i8, ptr %0, i64 40
  store i32 %1, ptr %5, align 8, !tbaa !336
  %6 = getelementptr inbounds nuw i8, ptr %0, i64 48
  tail call void @llvm.memset.p0.i64(ptr noundef nonnull align 8 dereferenceable(24) %6, i8 0, i64 24, i1 false)
  store ptr getelementptr inbounds nuw inrange(-16, 80) (i8, ptr @_ZTVN5arrow8TimeTypeE, i64 16), ptr %0, align 8, !tbaa !330
  %7 = getelementptr inbounds nuw i8, ptr %0, i64 72
  store i32 %2, ptr %7, align 8, !tbaa !697
  ret void
}